; Function Attrs: mustprogress uwtable
define noundef nonnull ptr @_ZN6google8protobuf4util32NewTypeResolverForDescriptorPoolESt17basic_string_viewIcSt11char_traitsIcEEPKNS0_14DescriptorPoolE(i64 %url_prefix.coerce0, ptr %url_prefix.coerce1, ptr noundef %pool) local_unnamed_addr #3 personality ptr @__gxx_personality_v0 {
entry:
  %agg.tmp.i.i = alloca %"struct.std::__cxx11::basic_string<char>::__sv_wrapper", align 8
  %ref.tmp.i = alloca %"class.std::allocator", align 1
  %call = tail call noalias noundef nonnull dereferenceable(48) ptr @_Znwm(i64 noundef 48) #12
  call void @llvm.lifetime.start.p0(i64 1, ptr nonnull %ref.tmp.i)
  store ptr getelementptr inbounds ({ [6 x ptr] }, ptr @_ZTVN6google8protobuf4util12_GLOBAL__N_126DescriptorPoolTypeResolverE, i64 0, i32 0, i64 2), ptr %call, align 8
  %url_prefix_.i = getelementptr inbounds i8, ptr %call, i64 8
  call void @_ZNSaIcEC1Ev(ptr noundef nonnull align 1 dereferenceable(1) %ref.tmp.i) #13
  call void @llvm.lifetime.start.p0(i64 16, ptr nonnull %agg.tmp.i.i)
  %call.i.i = call { i64, ptr } @_ZNSt7__cxx1112basic_stringIcSt11char_traitsIcESaIcEE17_S_to_string_viewESt17basic_string_viewIcS2_E(i64 %url_prefix.coerce0, ptr %url_prefix.coerce1) #13
  %0 = extractvalue { i64, ptr } %call.i.i, 0
  %1 = extractvalue { i64, ptr } %call.i.i, 1
  call void @_ZNSt7__cxx1112basic_stringIcSt11char_traitsIcESaIcEE12__sv_wrapperC1ESt17basic_string_viewIcS2_E(ptr noundef nonnull align 8 dereferenceable(16) %agg.tmp.i.i, i64 %0, ptr %1) #13
  %2 = load i64, ptr %agg.tmp.i.i, align 8
  %3 = getelementptr inbounds i8, ptr %agg.tmp.i.i, i64 8
  %4 = load ptr, ptr %3, align 8
  invoke void @_ZNSt7__cxx1112basic_stringIcSt11char_traitsIcESaIcEEC2ENS4_12__sv_wrapperERKS3_(ptr noundef nonnull align 8 dereferenceable(32) %url_prefix_.i, i64 %2, ptr %4, ptr noundef nonnull align 1 dereferenceable(1) %ref.tmp.i)
          to label %invoke.cont unwind label %lpad.i

lpad.i:                                           ; preds = %entry
  %5 = landingpad { ptr, i32 }
          cleanup
  call void @_ZNSaIcED1Ev(ptr noundef nonnull align 1 dereferenceable(1) %ref.tmp.i) #13
  call void @_ZdlPv(ptr noundef nonnull %call) #14
  resume { ptr, i32 } %5

invoke.cont:                                      ; preds = %entry
  call void @llvm.lifetime.end.p0(i64 16, ptr nonnull %agg.tmp.i.i)
  call void @_ZNSaIcED1Ev(ptr noundef nonnull align 1 dereferenceable(1) %ref.tmp.i) #13
  %pool_.i = getelementptr inbounds i8, ptr %call, i64 40
  store ptr %pool, ptr %pool_.i, align 8
  call void @llvm.lifetime.end.p0(i64 1, ptr nonnull %ref.tmp.i)
  ret ptr %call
}